target datalayout = "e-m:e-p270:32:32-p271:32:32-p272:64:64-i64:64-i128:128-f80:128-n8:16:32:64-S128"
target triple = "x86_64-pc-linux-gnu"

%struct.FunctionCallInfoBaseData = type { ptr, ptr, ptr, i32, i8, i16, [0 x %struct.NullableDatum] }
%struct.NullableDatum = type { i64, i8 }
%struct.anon = type { i32, [0 x i8] }
%struct.varattrib_1b = type { i8, [0 x i8] }
%struct.varattrib_1b_e = type { i8, i8, [0 x i8] }
%struct.pg_locale_struct = type { i8, i8, i8, i8, i8, ptr, %union.anon }
%union.anon = type { %struct.anon.1 }
%struct.anon.1 = type { ptr, i8 }

@.str.1 = private unnamed_addr constant [10 x i8] c"varchar.c\00", align 1
@.str.4 = private unnamed_addr constant [62 x i8] c"could not determine which collation to use for string hashing\00", align 1
@.str.5 = private unnamed_addr constant [56 x i8] c"Use the COLLATE clause to set the collation explicitly.\00", align 1
@__func__.hashbpchar = private unnamed_addr constant [11 x i8] c"hashbpchar\00", align 1
@.str.6 = private unnamed_addr constant [41 x i8] c"pg_strnxfrm() returned unexpected result\00", align 1

; Function Attrs: inlinehint nounwind uwtable
define internal i64 @UInt32GetDatum(i32 noundef %0) #2 {
  %2 = alloca i32, align 4
  store i32 %0, ptr %2, align 4
  %3 = load i32, ptr %2, align 4
  %4 = zext i32 %3 to i64
  ret i64 %4
}

; Function Attrs: nounwind uwtable
define dso_local i32 @bpchartruelen(ptr noundef %0, i32 noundef %1) #0 {
  %3 = alloca ptr, align 8
  %4 = alloca i32, align 4
  %5 = alloca i32, align 4
  store ptr %0, ptr %3, align 8
  store i32 %1, ptr %4, align 4
  call void @llvm.lifetime.start.p0(i64 4, ptr %5) #8
  %6 = load i32, ptr %4, align 4
  %7 = sub i32 %6, 1
  store i32 %7, ptr %5, align 4
  br label %8

8:                                                ; preds = %21, %2
  %9 = load i32, ptr %5, align 4
  %10 = icmp sge i32 %9, 0
  br i1 %10, label %11, label %24

11:                                               ; preds = %8
  %12 = load ptr, ptr %3, align 8
  %13 = load i32, ptr %5, align 4
  %14 = sext i32 %13 to i64
  %15 = getelementptr inbounds i8, ptr %12, i64 %14
  %16 = load i8, ptr %15, align 1
  %17 = sext i8 %16 to i32
  %18 = icmp ne i32 %17, 32
  br i1 %18, label %19, label %20

19:                                               ; preds = %11
  br label %24

20:                                               ; preds = %11
  br label %21

21:                                               ; preds = %20
  %22 = load i32, ptr %5, align 4
  %23 = add i32 %22, -1
  store i32 %23, ptr %5, align 4
  br label %8, !llvm.loop !12

24:                                               ; preds = %19, %8
  %25 = load i32, ptr %5, align 4
  %26 = add i32 %25, 1
  call void @llvm.lifetime.end.p0(i64 4, ptr %5) #8
  ret i32 %26
}

; Function Attrs: inlinehint nounwind uwtable
define internal i64 @hash_any(ptr noundef %0, i32 noundef %1) #2 {
  %3 = alloca ptr, align 8
  %4 = alloca i32, align 4
  store ptr %0, ptr %3, align 8
  store i32 %1, ptr %4, align 4
  %5 = load ptr, ptr %3, align 8
  %6 = load i32, ptr %4, align 4
  %7 = call i32 @hash_bytes(ptr noundef %5, i32 noundef %6)
  %8 = call i64 @UInt32GetDatum(i32 noundef %7)
  ret i64 %8
}

; Function Attrs: inlinehint nounwind uwtable
define internal i32 @bcTruelen(ptr noundef %0) #2 {
  %2 = alloca ptr, align 8
  store ptr %0, ptr %2, align 8
  %3 = load ptr, ptr %2, align 8
  %4 = getelementptr inbounds nuw %struct.varattrib_1b, ptr %3, i32 0, i32 0
  %5 = load i8, ptr %4, align 1
  %6 = zext i8 %5 to i32
  %7 = and i32 %6, 1
  %8 = icmp eq i32 %7, 1
  br i1 %8, label %9, label %13

9:                                                ; preds = %1
  %10 = load ptr, ptr %2, align 8
  %11 = getelementptr inbounds nuw %struct.varattrib_1b, ptr %10, i32 0, i32 1
  %12 = getelementptr inbounds [0 x i8], ptr %11, i64 0, i64 0
  br label %17

13:                                               ; preds = %1
  %14 = load ptr, ptr %2, align 8
  %15 = getelementptr inbounds nuw %struct.anon, ptr %14, i32 0, i32 1
  %16 = getelementptr inbounds [0 x i8], ptr %15, i64 0, i64 0
  br label %17

17:                                               ; preds = %13, %9
  %18 = phi ptr [ %12, %9 ], [ %16, %13 ]
  %19 = load ptr, ptr %2, align 8
  %20 = getelementptr inbounds nuw %struct.varattrib_1b, ptr %19, i32 0, i32 0
  %21 = load i8, ptr %20, align 1
  %22 = zext i8 %21 to i32
  %23 = icmp eq i32 %22, 1
  br i1 %23, label %24, label %52

24:                                               ; preds = %17
  %25 = load ptr, ptr %2, align 8
  %26 = getelementptr inbounds nuw %struct.varattrib_1b_e, ptr %25, i32 0, i32 1
  %27 = load i8, ptr %26, align 1
  %28 = zext i8 %27 to i32
  %29 = icmp eq i32 %28, 1
  br i1 %29, label %30, label %31

30:                                               ; preds = %24
  br label %48

31:                                               ; preds = %24
  %32 = load ptr, ptr %2, align 8
  %33 = getelementptr inbounds nuw %struct.varattrib_1b_e, ptr %32, i32 0, i32 1
  %34 = load i8, ptr %33, align 1
  %35 = zext i8 %34 to i32
  %36 = and i32 %35, -2
  %37 = icmp eq i32 %36, 2
  br i1 %37, label %38, label %39

38:                                               ; preds = %31
  br label %46

39:                                               ; preds = %31
  %40 = load ptr, ptr %2, align 8
  %41 = getelementptr inbounds nuw %struct.varattrib_1b_e, ptr %40, i32 0, i32 1
  %42 = load i8, ptr %41, align 1
  %43 = zext i8 %42 to i32
  %44 = icmp eq i32 %43, 18
  %45 = select i1 %44, i64 16, i64 0
  br label %46

46:                                               ; preds = %39, %38
  %47 = phi i64 [ 8, %38 ], [ %45, %39 ]
  br label %48

48:                                               ; preds = %46, %30
  %49 = phi i64 [ 8, %30 ], [ %47, %46 ]
  %50 = add i64 2, %49
  %51 = sub i64 %50, 2
  br label %78

52:                                               ; preds = %17
  %53 = load ptr, ptr %2, align 8
  %54 = getelementptr inbounds nuw %struct.varattrib_1b, ptr %53, i32 0, i32 0
  %55 = load i8, ptr %54, align 1
  %56 = zext i8 %55 to i32
  %57 = and i32 %56, 1
  %58 = icmp eq i32 %57, 1
  br i1 %58, label %59, label %68

59:                                               ; preds = %52
  %60 = load ptr, ptr %2, align 8
  %61 = getelementptr inbounds nuw %struct.varattrib_1b, ptr %60, i32 0, i32 0
  %62 = load i8, ptr %61, align 1
  %63 = zext i8 %62 to i32
  %64 = ashr i32 %63, 1
  %65 = and i32 %64, 127
  %66 = sext i32 %65 to i64
  %67 = sub i64 %66, 1
  br label %76

68:                                               ; preds = %52
  %69 = load ptr, ptr %2, align 8
  %70 = getelementptr inbounds nuw %struct.anon, ptr %69, i32 0, i32 0
  %71 = load i32, ptr %70, align 4
  %72 = lshr i32 %71, 2
  %73 = and i32 %72, 1073741823
  %74 = sub i32 %73, 4
  %75 = zext i32 %74 to i64
  br label %76

76:                                               ; preds = %68, %59
  %77 = phi i64 [ %67, %59 ], [ %75, %68 ]
  br label %78

78:                                               ; preds = %76, %48
  %79 = phi i64 [ %51, %48 ], [ %77, %76 ]
  %80 = trunc i64 %79 to i32
  %81 = call i32 @bpchartruelen(ptr noundef %18, i32 noundef %80)
  ret i32 %81
}

; Function Attrs: inlinehint nounwind uwtable
define internal ptr @DatumGetPointer(i64 noundef %0) #2 {
  %2 = alloca i64, align 8
  store i64 %0, ptr %2, align 8
  %3 = load i64, ptr %2, align 8
  %4 = inttoptr i64 %3 to ptr
  ret ptr %4
}

; Function Attrs: nounwind uwtable
define dso_local i64 @hashbpchar(ptr noundef %0) #0 {
  %2 = alloca ptr, align 8
  %3 = alloca ptr, align 8
  %4 = alloca i32, align 4
  %5 = alloca ptr, align 8
  %6 = alloca i32, align 4
  %7 = alloca ptr, align 8
  %8 = alloca i64, align 8
  %9 = alloca i64, align 8
  %10 = alloca i64, align 8
  %11 = alloca ptr, align 8
  store ptr %0, ptr %2, align 8
  call void @llvm.lifetime.start.p0(i64 8, ptr %3) #8
  %12 = load ptr, ptr %2, align 8
  %13 = getelementptr inbounds nuw %struct.FunctionCallInfoBaseData, ptr %12, i32 0, i32 6
  %14 = getelementptr inbounds [0 x %struct.NullableDatum], ptr %13, i64 0, i64 0
  %15 = getelementptr inbounds nuw %struct.NullableDatum, ptr %14, i32 0, i32 0
  %16 = load i64, ptr %15, align 8
  %17 = call ptr @DatumGetPointer(i64 noundef %16)
  %18 = call ptr @pg_detoast_datum_packed(ptr noundef %17)
  store ptr %18, ptr %3, align 8
  call void @llvm.lifetime.start.p0(i64 4, ptr %4) #8
  %19 = load ptr, ptr %2, align 8
  %20 = getelementptr inbounds nuw %struct.FunctionCallInfoBaseData, ptr %19, i32 0, i32 3
  %21 = load i32, ptr %20, align 8
  store i32 %21, ptr %4, align 4
  call void @llvm.lifetime.start.p0(i64 8, ptr %5) #8
  call void @llvm.lifetime.start.p0(i64 4, ptr %6) #8
  call void @llvm.lifetime.start.p0(i64 8, ptr %7) #8
  call void @llvm.lifetime.start.p0(i64 8, ptr %8) #8
  %22 = load i32, ptr %4, align 4
  %23 = icmp ne i32 %22, 0
  br i1 %23, label %37, label %24

24:                                               ; preds = %1
  br label %25

25:                                               ; preds = %24
  br i1 true, label %26, label %28

26:                                               ; preds = %25
  %27 = call zeroext i1 @errstart_cold(i32 noundef 21, ptr noundef null) #10
  br i1 %27, label %30, label %34

28:                                               ; preds = %25
  %29 = call zeroext i1 @errstart(i32 noundef 21, ptr noundef null)
  br i1 %29, label %30, label %34

30:                                               ; preds = %28, %26
  %31 = call i32 @errcode(i32 noundef 34209924)
  %32 = call i32 (ptr, ...) @errmsg(ptr noundef @.str.4)
  %33 = call i32 (ptr, ...) @errhint(ptr noundef @.str.5)
  call void @errfinish(ptr noundef @.str.1, i32 noundef 1001, ptr noundef @__func__.hashbpchar)
  br label %34

34:                                               ; preds = %30, %28, %26
  unreachable

35:                                               ; No predecessors!
  br label %36

36:                                               ; preds = %35
  br label %37

37:                                               ; preds = %36, %1
  %38 = load ptr, ptr %3, align 8
  %39 = getelementptr inbounds nuw %struct.varattrib_1b, ptr %38, i32 0, i32 0
  %40 = load i8, ptr %39, align 1
  %41 = zext i8 %40 to i32
  %42 = and i32 %41, 1
  %43 = icmp eq i32 %42, 1
  br i1 %43, label %44, label %48

44:                                               ; preds = %37
  %45 = load ptr, ptr %3, align 8
  %46 = getelementptr inbounds nuw %struct.varattrib_1b, ptr %45, i32 0, i32 1
  %47 = getelementptr inbounds [0 x i8], ptr %46, i64 0, i64 0
  br label %52

48:                                               ; preds = %37
  %49 = load ptr, ptr %3, align 8
  %50 = getelementptr inbounds nuw %struct.anon, ptr %49, i32 0, i32 1
  %51 = getelementptr inbounds [0 x i8], ptr %50, i64 0, i64 0
  br label %52

52:                                               ; preds = %48, %44
  %53 = phi ptr [ %47, %44 ], [ %51, %48 ]
  store ptr %53, ptr %5, align 8
  %54 = load ptr, ptr %3, align 8
  %55 = call i32 @bcTruelen(ptr noundef %54)
  store i32 %55, ptr %6, align 4
  %56 = load i32, ptr %4, align 4
  %57 = call ptr @pg_newlocale_from_collation(i32 noundef %56)
  store ptr %57, ptr %7, align 8
  %58 = load ptr, ptr %7, align 8
  %59 = getelementptr inbounds nuw %struct.pg_locale_struct, ptr %58, i32 0, i32 1
  %60 = load i8, ptr %59, align 1, !range !6, !noundef !7
  %61 = trunc i8 %60 to i1
  br i1 %61, label %62, label %66

62:                                               ; preds = %52
  %63 = load ptr, ptr %5, align 8
  %64 = load i32, ptr %6, align 4
  %65 = call i64 @hash_any(ptr noundef %63, i32 noundef %64)
  store i64 %65, ptr %8, align 8
  br label %104

66:                                               ; preds = %52
  call void @llvm.lifetime.start.p0(i64 8, ptr %9) #8
  call void @llvm.lifetime.start.p0(i64 8, ptr %10) #8
  call void @llvm.lifetime.start.p0(i64 8, ptr %11) #8
  %67 = load ptr, ptr %5, align 8
  %68 = load i32, ptr %6, align 4
  %69 = sext i32 %68 to i64
  %70 = load ptr, ptr %7, align 8
  %71 = call i64 @pg_strnxfrm(ptr noundef null, i64 noundef 0, ptr noundef %67, i64 noundef %69, ptr noundef %70)
  store i64 %71, ptr %9, align 8
  %72 = load i64, ptr %9, align 8
  %73 = add i64 %72, 1
  %74 = call ptr @palloc(i64 noundef %73)
  store ptr %74, ptr %11, align 8
  %75 = load ptr, ptr %11, align 8
  %76 = load i64, ptr %9, align 8
  %77 = add i64 %76, 1
  %78 = load ptr, ptr %5, align 8
  %79 = load i32, ptr %6, align 4
  %80 = sext i32 %79 to i64
  %81 = load ptr, ptr %7, align 8
  %82 = call i64 @pg_strnxfrm(ptr noundef %75, i64 noundef %77, ptr noundef %78, i64 noundef %80, ptr noundef %81)
  store i64 %82, ptr %10, align 8
  %83 = load i64, ptr %10, align 8
  %84 = load i64, ptr %9, align 8
  %85 = icmp ugt i64 %83, %84
  br i1 %85, label %86, label %97

86:                                               ; preds = %66
  br label %87

87:                                               ; preds = %86
  br i1 true, label %88, label %90

88:                                               ; preds = %87
  %89 = call zeroext i1 @errstart_cold(i32 noundef 21, ptr noundef null) #10
  br i1 %89, label %92, label %94

90:                                               ; preds = %87
  %91 = call zeroext i1 @errstart(i32 noundef 21, ptr noundef null)
  br i1 %91, label %92, label %94

92:                                               ; preds = %90, %88
  %93 = call i32 (ptr, ...) @errmsg_internal(ptr noundef @.str.6)
  call void @errfinish(ptr noundef @.str.1, i32 noundef 1025, ptr noundef @__func__.hashbpchar)
  br label %94

94:                                               ; preds = %92, %90, %88
  unreachable

95:                                               ; No predecessors!
  br label %96

96:                                               ; preds = %95
  br label %97

97:                                               ; preds = %96, %66
  %98 = load ptr, ptr %11, align 8
  %99 = load i64, ptr %9, align 8
  %100 = add i64 %99, 1
  %101 = trunc i64 %100 to i32
  %102 = call i64 @hash_any(ptr noundef %98, i32 noundef %101)
  store i64 %102, ptr %8, align 8
  %103 = load ptr, ptr %11, align 8
  call void @pfree(ptr noundef %103)
  call void @llvm.lifetime.end.p0(i64 8, ptr %11) #8
  call void @llvm.lifetime.end.p0(i64 8, ptr %10) #8
  call void @llvm.lifetime.end.p0(i64 8, ptr %9) #8
  br label %104

104:                                              ; preds = %97, %62
  br label %105

105:                                              ; preds = %104
  %106 = load ptr, ptr %3, align 8
  %107 = load ptr, ptr %2, align 8
  %108 = getelementptr inbounds nuw %struct.FunctionCallInfoBaseData, ptr %107, i32 0, i32 6
  %109 = getelementptr inbounds [0 x %struct.NullableDatum], ptr %108, i64 0, i64 0
  %110 = getelementptr inbounds nuw %struct.NullableDatum, ptr %109, i32 0, i32 0
  %111 = load i64, ptr %110, align 8
  %112 = call ptr @DatumGetPointer(i64 noundef %111)
  %113 = icmp ne ptr %106, %112
  br i1 %113, label %114, label %116

114:                                              ; preds = %105
  %115 = load ptr, ptr %3, align 8
  call void @pfree(ptr noundef %115)
  br label %116

116:                                              ; preds = %114, %105
  br label %117

117:                                              ; preds = %116
  br label %118

118:                                              ; preds = %117
  %119 = load i64, ptr %8, align 8
  call void @llvm.lifetime.end.p0(i64 8, ptr %8) #8
  call void @llvm.lifetime.end.p0(i64 8, ptr %7) #8
  call void @llvm.lifetime.end.p0(i64 4, ptr %6) #8
  call void @llvm.lifetime.end.p0(i64 8, ptr %5) #8
  call void @llvm.lifetime.end.p0(i64 4, ptr %4) #8
  call void @llvm.lifetime.end.p0(i64 8, ptr %3) #8
  ret i64 %119
}